target datalayout = "e-m:e-p270:32:32-p271:32:32-p272:64:64-i64:64-i128:128-f80:128-n8:16:32:64-S128"
target triple = "x86_64-pc-linux-gnu"

%struct.H5S_select_class_t = type { i32, ptr, ptr, ptr, ptr, ptr, ptr, ptr, ptr, ptr, ptr, ptr, ptr, ptr, ptr, ptr, ptr, ptr, ptr, ptr, ptr }
%struct.H5S_t = type { %struct.H5S_extent_t, %struct.H5S_select_t }
%struct.H5S_extent_t = type { %struct.H5O_shared_t, i32, i32, i64, i32, ptr, ptr }
%struct.H5O_shared_t = type { i32, ptr, i32, %union.anon }
%union.anon = type { %struct.H5O_mesg_loc_t }
%struct.H5O_mesg_loc_t = type { i32, i64 }
%struct.H5S_select_t = type { ptr, i8, [32 x i64], i64, %union.anon.0 }
%union.anon.0 = type { ptr }

@H5_libinit_g = external global i8, align 1
@H5_libterm_g = external global i8, align 1
@.str.1 = private unnamed_addr constant [103 x i8] c"generated/home/dtcxzyw/WorkSpace/Projects/compilers/llvm-opt-benchmark/bench/hdf5/hdf5/src/H5Sselect.c\00", align 1
@H5E_FUNC_g = external global i64, align 8
@H5E_CANTINIT_g = external global i64, align 8
@.str.2 = private unnamed_addr constant [30 x i8] c"library initialization failed\00", align 1
@H5E_CANTSET_g = external global i64, align 8
@.str.3 = private unnamed_addr constant [22 x i8] c"can't set API context\00", align 1
@.str.4 = private unnamed_addr constant [16 x i8] c"not a dataspace\00", align 1
@H5E_ARGS_g = external global i64, align 8
@H5E_BADTYPE_g = external global i64, align 8
@__func__.H5Sget_select_bounds = private unnamed_addr constant [21 x i8] c"H5Sget_select_bounds\00", align 1
@H5E_BADVALUE_g = external global i64, align 8
@.str.12 = private unnamed_addr constant [16 x i8] c"invalid pointer\00", align 1

; Function Attrs: nounwind uwtable
define i32 @H5Sget_select_bounds(i64 noundef %0, ptr noundef %1, ptr noundef %2) #0 {
  %4 = alloca i64, align 8
  %5 = alloca ptr, align 8
  %6 = alloca ptr, align 8
  %7 = alloca ptr, align 8
  %8 = alloca i32, align 4
  %9 = alloca i8, align 1
  %10 = alloca i8, align 1
  store i64 %0, ptr %4, align 8
  store ptr %1, ptr %5, align 8
  store ptr %2, ptr %6, align 8
  store i8 0, ptr %9, align 1
  store i8 0, ptr %10, align 1
  %11 = load i8, ptr @H5_libinit_g, align 1
  %12 = trunc i8 %11 to i1
  br i1 %12, label %17, label %13

13:                                               ; preds = %3
  %14 = load i8, ptr @H5_libterm_g, align 1
  %15 = trunc i8 %14 to i1
  %16 = xor i1 %15, true
  br label %17

17:                                               ; preds = %13, %3
  %18 = phi i1 [ false, %3 ], [ %16, %13 ]
  %19 = xor i1 %18, true
  %20 = xor i1 %19, true
  %21 = zext i1 %20 to i32
  %22 = sext i32 %21 to i64
  %23 = icmp ne i64 %22, 0
  br i1 %23, label %24, label %48

24:                                               ; preds = %17
  %25 = call i32 @H5_init_library()
  %26 = icmp slt i32 %25, 0
  %27 = xor i1 %26, true
  %28 = xor i1 %27, true
  %29 = zext i1 %28 to i32
  %30 = sext i32 %29 to i64
  %31 = icmp ne i64 %30, 0
  br i1 %31, label %32, label %47

32:                                               ; preds = %24
  br label %33

33:                                               ; preds = %32
  br label %34

34:                                               ; preds = %33
  br label %35

35:                                               ; preds = %34
  %36 = load i64, ptr @H5E_FUNC_g, align 8
  %37 = load i64, ptr @H5E_CANTINIT_g, align 8
  %38 = call i32 (ptr, ptr, i32, i64, i64, ptr, ...) @H5E_printf_stack(ptr noundef @.str.1, ptr noundef @__func__.H5Sget_select_bounds, i32 noundef 593, i64 noundef %36, i64 noundef %37, ptr noundef @.str.2)
  br label %39

39:                                               ; preds = %35
  store i8 1, ptr %10, align 1
  %40 = load i8, ptr %10, align 1
  %41 = trunc i8 %40 to i1
  %42 = zext i1 %41 to i8
  store i8 %42, ptr %10, align 1
  br label %43

43:                                               ; preds = %39
  br label %44

44:                                               ; preds = %43
  store i32 -1, ptr %8, align 4
  br label %124

45:                                               ; No predecessors!
  br label %46

46:                                               ; preds = %45
  br label %47

47:                                               ; preds = %46, %24
  br label %48

48:                                               ; preds = %47, %17
  %49 = call i32 @H5CX_push()
  %50 = icmp slt i32 %49, 0
  %51 = xor i1 %50, true
  %52 = xor i1 %51, true
  %53 = zext i1 %52 to i32
  %54 = sext i32 %53 to i64
  %55 = icmp ne i64 %54, 0
  br i1 %55, label %56, label %71

56:                                               ; preds = %48
  br label %57

57:                                               ; preds = %56
  br label %58

58:                                               ; preds = %57
  br label %59

59:                                               ; preds = %58
  %60 = load i64, ptr @H5E_FUNC_g, align 8
  %61 = load i64, ptr @H5E_CANTSET_g, align 8
  %62 = call i32 (ptr, ptr, i32, i64, i64, ptr, ...) @H5E_printf_stack(ptr noundef @.str.1, ptr noundef @__func__.H5Sget_select_bounds, i32 noundef 593, i64 noundef %60, i64 noundef %61, ptr noundef @.str.3)
  br label %63

63:                                               ; preds = %59
  store i8 1, ptr %10, align 1
  %64 = load i8, ptr %10, align 1
  %65 = trunc i8 %64 to i1
  %66 = zext i1 %65 to i8
  store i8 %66, ptr %10, align 1
  br label %67

67:                                               ; preds = %63
  br label %68

68:                                               ; preds = %67
  store i32 -1, ptr %8, align 4
  br label %124

69:                                               ; No predecessors!
  br label %70

70:                                               ; preds = %69
  br label %72

71:                                               ; preds = %48
  store i8 1, ptr %9, align 1
  br label %72

72:                                               ; preds = %71, %70
  %73 = call i32 @H5E_clear_stack()
  %74 = load ptr, ptr %5, align 8
  %75 = icmp eq ptr %74, null
  br i1 %75, label %79, label %76

76:                                               ; preds = %72
  %77 = load ptr, ptr %6, align 8
  %78 = icmp eq ptr %77, null
  br i1 %78, label %79, label %94

79:                                               ; preds = %76, %72
  br label %80

80:                                               ; preds = %79
  br label %81

81:                                               ; preds = %80
  br label %82

82:                                               ; preds = %81
  %83 = load i64, ptr @H5E_ARGS_g, align 8
  %84 = load i64, ptr @H5E_BADVALUE_g, align 8
  %85 = call i32 (ptr, ptr, i32, i64, i64, ptr, ...) @H5E_printf_stack(ptr noundef @.str.1, ptr noundef @__func__.H5Sget_select_bounds, i32 noundef 597, i64 noundef %83, i64 noundef %84, ptr noundef @.str.12)
  br label %86

86:                                               ; preds = %82
  store i8 1, ptr %10, align 1
  %87 = load i8, ptr %10, align 1
  %88 = trunc i8 %87 to i1
  %89 = zext i1 %88 to i8
  store i8 %89, ptr %10, align 1
  br label %90

90:                                               ; preds = %86
  br label %91

91:                                               ; preds = %90
  store i32 -1, ptr %8, align 4
  br label %124

92:                                               ; No predecessors!
  br label %93

93:                                               ; preds = %92
  br label %94

94:                                               ; preds = %93, %76
  %95 = load i64, ptr %4, align 8
  %96 = call ptr @H5I_object_verify(i64 noundef %95, i32 noundef 4)
  store ptr %96, ptr %7, align 8
  %97 = icmp eq ptr null, %96
  br i1 %97, label %98, label %113

98:                                               ; preds = %94
  br label %99

99:                                               ; preds = %98
  br label %100

100:                                              ; preds = %99
  br label %101

101:                                              ; preds = %100
  %102 = load i64, ptr @H5E_ARGS_g, align 8
  %103 = load i64, ptr @H5E_BADTYPE_g, align 8
  %104 = call i32 (ptr, ptr, i32, i64, i64, ptr, ...) @H5E_printf_stack(ptr noundef @.str.1, ptr noundef @__func__.H5Sget_select_bounds, i32 noundef 599, i64 noundef %102, i64 noundef %103, ptr noundef @.str.4)
  br label %105

105:                                              ; preds = %101
  store i8 1, ptr %10, align 1
  %106 = load i8, ptr %10, align 1
  %107 = trunc i8 %106 to i1
  %108 = zext i1 %107 to i8
  store i8 %108, ptr %10, align 1
  br label %109

109:                                              ; preds = %105
  br label %110

110:                                              ; preds = %109
  store i32 -1, ptr %8, align 4
  br label %124

111:                                              ; No predecessors!
  br label %112

112:                                              ; preds = %111
  br label %113

113:                                              ; preds = %112, %94
  %114 = load ptr, ptr %7, align 8
  %115 = getelementptr inbounds %struct.H5S_t, ptr %114, i32 0, i32 1
  %116 = getelementptr inbounds %struct.H5S_select_t, ptr %115, i32 0, i32 0
  %117 = load ptr, ptr %116, align 8
  %118 = getelementptr inbounds %struct.H5S_select_class_t, ptr %117, i32 0, i32 7
  %119 = load ptr, ptr %118, align 8
  %120 = load ptr, ptr %7, align 8
  %121 = load ptr, ptr %5, align 8
  %122 = load ptr, ptr %6, align 8
  %123 = call i32 %119(ptr noundef %120, ptr noundef %121, ptr noundef %122)
  store i32 %123, ptr %8, align 4
  br label %124

124:                                              ; preds = %113, %110, %91, %68, %44
  %125 = load i8, ptr %9, align 1
  %126 = trunc i8 %125 to i1
  %127 = xor i1 %126, true
  %128 = xor i1 %127, true
  %129 = zext i1 %128 to i32
  %130 = sext i32 %129 to i64
  %131 = icmp ne i64 %130, 0
  br i1 %131, label %132, label %134

132:                                              ; preds = %124
  %133 = call i32 @H5CX_pop(i1 noundef zeroext true)
  store i8 0, ptr %9, align 1
  br label %134

134:                                              ; preds = %132, %124
  %135 = load i8, ptr %10, align 1
  %136 = trunc i8 %135 to i1
  %137 = xor i1 %136, true
  %138 = xor i1 %137, true
  %139 = zext i1 %138 to i32
  %140 = sext i32 %139 to i64
  %141 = icmp ne i64 %140, 0
  br i1 %141, label %142, label %144

142:                                              ; preds = %134
  %143 = call i32 @H5E_dump_api_stack()
  br label %144

144:                                              ; preds = %142, %134
  %145 = load i32, ptr %8, align 4
  ret i32 %145
}