; Function Attrs: nounwind uwtable
define i32 @H5Sget_select_bounds(i64 noundef %0, ptr noundef %1, ptr noundef %2) local_unnamed_addr #3 {
  %4 = load i8, ptr @H5_libinit_g, align 1
  %5 = trunc i8 %4 to i1
  %6 = load i8, ptr @H5_libterm_g, align 1
  %7 = trunc i8 %6 to i1
  %8 = select i1 %5, i1 true, i1 %7
  br i1 %8, label %16, label %9

9:                                                ; preds = %3
  %10 = tail call i32 @H5_init_library() #7
  %11 = icmp slt i32 %10, 0
  br i1 %11, label %12, label %16

12:                                               ; preds = %9
  %13 = load i64, ptr @H5E_FUNC_g, align 8
  %14 = load i64, ptr @H5E_CANTINIT_g, align 8
  %15 = tail call i32 (ptr, ptr, i32, i64, i64, ptr, ...) @H5E_printf_stack(ptr noundef nonnull @.str.1, ptr noundef nonnull @__func__.H5Sget_select_bounds, i32 noundef 593, i64 noundef %13, i64 noundef %14, ptr noundef nonnull @.str.2) #7
  br label %.thread27

16:                                               ; preds = %9, %3
  %17 = tail call i32 @H5CX_push() #7
  %18 = icmp slt i32 %17, 0
  br i1 %18, label %19, label %23

19:                                               ; preds = %16
  %20 = load i64, ptr @H5E_FUNC_g, align 8
  %21 = load i64, ptr @H5E_CANTSET_g, align 8
  %22 = tail call i32 (ptr, ptr, i32, i64, i64, ptr, ...) @H5E_printf_stack(ptr noundef nonnull @.str.1, ptr noundef nonnull @__func__.H5Sget_select_bounds, i32 noundef 593, i64 noundef %20, i64 noundef %21, ptr noundef nonnull @.str.3) #7
  br label %.thread27

23:                                               ; preds = %16
  %24 = tail call i32 @H5E_clear_stack() #7
  %25 = icmp eq ptr %1, null
  %26 = icmp eq ptr %2, null
  %or.cond = or i1 %25, %26
  br i1 %or.cond, label %27, label %31

27:                                               ; preds = %23
  %28 = load i64, ptr @H5E_ARGS_g, align 8
  %29 = load i64, ptr @H5E_BADVALUE_g, align 8
  %30 = tail call i32 (ptr, ptr, i32, i64, i64, ptr, ...) @H5E_printf_stack(ptr noundef nonnull @.str.1, ptr noundef nonnull @__func__.H5Sget_select_bounds, i32 noundef 597, i64 noundef %28, i64 noundef %29, ptr noundef nonnull @.str.12) #7
  br label %.thread33

31:                                               ; preds = %23
  %32 = tail call ptr @H5I_object_verify(i64 noundef %0, i32 noundef 4) #7
  %33 = icmp eq ptr %32, null
  br i1 %33, label %34, label %39

34:                                               ; preds = %31
  %35 = load i64, ptr @H5E_ARGS_g, align 8
  %36 = load i64, ptr @H5E_BADTYPE_g, align 8
  %37 = tail call i32 (ptr, ptr, i32, i64, i64, ptr, ...) @H5E_printf_stack(ptr noundef nonnull @.str.1, ptr noundef nonnull @__func__.H5Sget_select_bounds, i32 noundef 599, i64 noundef %35, i64 noundef %36, ptr noundef nonnull @.str.4) #7
  br label %.thread33

.thread33:                                        ; preds = %34, %27
  %38 = tail call i32 @H5CX_pop(i1 noundef zeroext true) #7
  br label %.thread27

39:                                               ; preds = %31
  %40 = getelementptr inbounds i8, ptr %32, i64 80
  %41 = load ptr, ptr %40, align 8
  %42 = getelementptr inbounds i8, ptr %41, i64 56
  %43 = load ptr, ptr %42, align 8
  %44 = tail call i32 %43(ptr noundef nonnull %32, ptr noundef nonnull %1, ptr noundef nonnull %2) #7
  %45 = tail call i32 @H5CX_pop(i1 noundef zeroext true) #7
  br label %47

.thread27:                                        ; preds = %19, %12, %.thread33
  %46 = tail call i32 @H5E_dump_api_stack() #7
  br label %47

47:                                               ; preds = %39, %.thread27
  %.0152230 = phi i32 [ -1, %.thread27 ], [ %44, %39 ]
  ret i32 %.0152230
}